target datalayout = "e-m:e-p270:32:32-p271:32:32-p272:64:64-i64:64-i128:128-f80:128-n8:16:32:64-S128"
target triple = "x86_64-pc-linux-gnu"

%class.CodeBuffer = type { ptr, %class.CodeSection, %class.CodeSection, %class.CodeSection, ptr, ptr, ptr, i32, ptr, %class.OopRecorder, ptr, ptr, ptr, ptr, ptr, i8, i32 }
%class.CodeSection = type { ptr, ptr, ptr, ptr, ptr, ptr, ptr, ptr, i8, i8, i32, i8, ptr }
%class.OopRecorder = type { %class.ValueRecorder, %class.ValueRecorder.0, ptr }
%class.ValueRecorder = type <{ ptr, ptr, ptr, ptr, i8, [7 x i8] }>
%class.ValueRecorder.0 = type <{ ptr, ptr, ptr, ptr, i8, [7 x i8] }>
%class.relocInfo = type { i16 }

@g_assert_poison = external global ptr, align 8
@.str = private unnamed_addr constant [37 x i8] c"src/hotspot/share/asm/codeBuffer.cpp\00", align 1
@.str.4 = private unnamed_addr constant [40 x i8] c"guarantee(middle - slop > start) failed\00", align 1
@.str.5 = private unnamed_addr constant [31 x i8] c"need enough space to divide up\00", align 1
@CodeEntryAlignment = external global i64, align 8

; Function Attrs: mustprogress nounwind uwtable
define linkonce_odr hidden noundef i32 @_ZNK11CodeSection4sizeEv(ptr noundef nonnull align 8 dereferenceable(88) %0) #1 comdat align 2 {
  %2 = alloca ptr, align 8
  store ptr %0, ptr %2, align 8
  %3 = load ptr, ptr %2, align 8
  %4 = getelementptr inbounds %class.CodeSection, ptr %3, i32 0, i32 2
  %5 = load ptr, ptr %4, align 8
  %6 = getelementptr inbounds %class.CodeSection, ptr %3, i32 0, i32 0
  %7 = load ptr, ptr %6, align 8
  %8 = ptrtoint ptr %5 to i64
  %9 = ptrtoint ptr %7 to i64
  %10 = sub i64 %8, %9
  %11 = trunc i64 %10 to i32
  ret i32 %11
}

; Function Attrs: mustprogress nounwind uwtable
define linkonce_odr hidden noundef i32 @_Z4MAX2IiET_S0_S0_(i32 noundef %0, i32 noundef %1) #1 comdat {
  %3 = alloca i32, align 4
  %4 = alloca i32, align 4
  store i32 %0, ptr %3, align 4
  store i32 %1, ptr %4, align 4
  %5 = load i32, ptr %3, align 4
  %6 = load i32, ptr %4, align 4
  %7 = icmp sgt i32 %5, %6
  br i1 %7, label %8, label %10

8:                                                ; preds = %2
  %9 = load i32, ptr %3, align 4
  br label %12

10:                                               ; preds = %2
  %11 = load i32, ptr %4, align 4
  br label %12

12:                                               ; preds = %10, %8
  %13 = phi i32 [ %9, %8 ], [ %11, %10 ]
  ret i32 %13
}

; Function Attrs: mustprogress nounwind uwtable
define hidden void @_ZN11CodeSection15initialize_locsEi(ptr noundef nonnull align 8 dereferenceable(88) %0, i32 noundef %1) #1 align 2 {
  %3 = alloca ptr, align 8
  %4 = alloca i32, align 4
  %5 = alloca i32, align 4
  %6 = alloca ptr, align 8
  store ptr %0, ptr %3, align 8
  store i32 %1, ptr %4, align 4
  %7 = load ptr, ptr %3, align 8
  %8 = call noundef i32 @_ZNK11CodeSection4sizeEv(ptr noundef nonnull align 8 dereferenceable(88) %7)
  %9 = sdiv i32 %8, 16
  %10 = call noundef i32 @_Z4MAX2IiET_S0_S0_(i32 noundef %9, i32 noundef 4)
  store i32 %10, ptr %5, align 4
  %11 = load i32, ptr %4, align 4
  %12 = load i32, ptr %5, align 4
  %13 = icmp slt i32 %11, %12
  br i1 %13, label %14, label %16

14:                                               ; preds = %2
  %15 = load i32, ptr %5, align 4
  store i32 %15, ptr %4, align 4
  br label %16

16:                                               ; preds = %14, %2
  %17 = load i32, ptr %4, align 4
  %18 = sext i32 %17 to i64
  %19 = mul i64 %18, 2
  %20 = call noundef ptr @_Z23resource_allocate_bytesmN17AllocFailStrategy13AllocFailEnumE(i64 noundef %19, i32 noundef 0)
  store ptr %20, ptr %6, align 8
  %21 = load ptr, ptr %6, align 8
  %22 = getelementptr inbounds %class.CodeSection, ptr %7, i32 0, i32 4
  store ptr %21, ptr %22, align 8
  %23 = load ptr, ptr %6, align 8
  %24 = getelementptr inbounds %class.CodeSection, ptr %7, i32 0, i32 5
  store ptr %23, ptr %24, align 8
  %25 = load ptr, ptr %6, align 8
  %26 = load i32, ptr %4, align 4
  %27 = sext i32 %26 to i64
  %28 = getelementptr inbounds %class.relocInfo, ptr %25, i64 %27
  %29 = getelementptr inbounds %class.CodeSection, ptr %7, i32 0, i32 6
  store ptr %28, ptr %29, align 8
  %30 = getelementptr inbounds %class.CodeSection, ptr %7, i32 0, i32 8
  store i8 1, ptr %30, align 8
  ret void
}

; Function Attrs: mustprogress nounwind uwtable
define linkonce_odr hidden noundef zeroext i1 @_ZNK11CodeSection8has_locsEv(ptr noundef nonnull align 8 dereferenceable(88) %0) #1 comdat align 2 {
  %2 = alloca ptr, align 8
  store ptr %0, ptr %2, align 8
  %3 = load ptr, ptr %2, align 8
  %4 = getelementptr inbounds %class.CodeSection, ptr %3, i32 0, i32 5
  %5 = load ptr, ptr %4, align 8
  %6 = icmp ne ptr %5, null
  ret i1 %6
}

; Function Attrs: mustprogress nounwind uwtable
define linkonce_odr hidden void @_ZN11CodeSection10initializeEPhi(ptr noundef nonnull align 8 dereferenceable(88) %0, ptr noundef %1, i32 noundef %2) #1 comdat align 2 {
  %4 = alloca ptr, align 8
  %5 = alloca ptr, align 8
  %6 = alloca i32, align 4
  store ptr %0, ptr %4, align 8
  store ptr %1, ptr %5, align 8
  store i32 %2, ptr %6, align 4
  %7 = load ptr, ptr %4, align 8
  %8 = load ptr, ptr %5, align 8
  %9 = getelementptr inbounds %class.CodeSection, ptr %7, i32 0, i32 0
  store ptr %8, ptr %9, align 8
  %10 = getelementptr inbounds %class.CodeSection, ptr %7, i32 0, i32 1
  store ptr null, ptr %10, align 8
  %11 = load ptr, ptr %5, align 8
  %12 = getelementptr inbounds %class.CodeSection, ptr %7, i32 0, i32 2
  store ptr %11, ptr %12, align 8
  %13 = load ptr, ptr %5, align 8
  %14 = load i32, ptr %6, align 4
  %15 = sext i32 %14 to i64
  %16 = getelementptr inbounds i8, ptr %13, i64 %15
  %17 = getelementptr inbounds %class.CodeSection, ptr %7, i32 0, i32 3
  store ptr %16, ptr %17, align 8
  %18 = load ptr, ptr %5, align 8
  %19 = getelementptr inbounds %class.CodeSection, ptr %7, i32 0, i32 7
  store ptr %18, ptr %19, align 8
  ret void
}

; Function Attrs: mustprogress nounwind uwtable
define hidden noundef i32 @_ZNK11CodeSection9alignmentEv(ptr noundef nonnull align 8 dereferenceable(88) %0) #1 align 2 {
  %2 = alloca i32, align 4
  %3 = alloca ptr, align 8
  store ptr %0, ptr %3, align 8
  %4 = load ptr, ptr %3, align 8
  %5 = getelementptr inbounds %class.CodeSection, ptr %4, i32 0, i32 11
  %6 = load i8, ptr %5, align 8
  %7 = sext i8 %6 to i32
  %8 = icmp eq i32 %7, 0
  br i1 %8, label %9, label %14

9:                                                ; preds = %1
  %10 = getelementptr inbounds %class.CodeSection, ptr %4, i32 0, i32 12
  %11 = load ptr, ptr %10, align 8
  %12 = getelementptr inbounds %class.CodeBuffer, ptr %11, i32 0, i32 16
  %13 = load i32, ptr %12, align 4
  store i32 %13, ptr %2, align 4
  br label %32

14:                                               ; preds = %1
  %15 = getelementptr inbounds %class.CodeSection, ptr %4, i32 0, i32 11
  %16 = load i8, ptr %15, align 8
  %17 = sext i8 %16 to i32
  %18 = icmp eq i32 %17, 1
  br i1 %18, label %19, label %22

19:                                               ; preds = %14
  %20 = load i64, ptr @CodeEntryAlignment, align 8
  %21 = trunc i64 %20 to i32
  store i32 %21, ptr %2, align 4
  br label %32

22:                                               ; preds = %14
  %23 = getelementptr inbounds %class.CodeSection, ptr %4, i32 0, i32 11
  %24 = load i8, ptr %23, align 8
  %25 = sext i8 %24 to i32
  %26 = icmp eq i32 %25, 2
  br i1 %26, label %27, label %28

27:                                               ; preds = %22
  store i32 8, ptr %2, align 4
  br label %32

28:                                               ; preds = %22
  br label %29

29:                                               ; preds = %28
  %30 = load ptr, ptr @g_assert_poison, align 8
  store i8 88, ptr %30, align 1
  call void @_Z28report_should_not_reach_herePKci(ptr noundef @.str, i32 noundef 441) #9
  unreachable

31:                                               ; No predecessors!
  store i32 0, ptr %2, align 4
  br label %32

32:                                               ; preds = %31, %27, %19, %9
  %33 = load i32, ptr %2, align 4
  ret i32 %33
}

; Function Attrs: mustprogress nounwind uwtable
define linkonce_odr hidden noundef i32 @_ZN11CodeSection8end_slopEv() #1 comdat align 2 {
  %1 = load i64, ptr @CodeEntryAlignment, align 8
  %2 = trunc i64 %1 to i32
  %3 = call noundef i32 @_Z4MAX2IiET_S0_S0_(i32 noundef 8, i32 noundef %2)
  ret i32 %3
}

; Function Attrs: mustprogress nounwind uwtable
define hidden void @_ZN10CodeBuffer23initialize_section_sizeEP11CodeSectioni(ptr noundef nonnull align 8 dereferenceable(448) %0, ptr noundef %1, i32 noundef %2) #1 align 2 {
  %4 = alloca ptr, align 8
  %5 = alloca ptr, align 8
  %6 = alloca i32, align 4
  %7 = alloca i32, align 4
  %8 = alloca i32, align 4
  %9 = alloca ptr, align 8
  %10 = alloca ptr, align 8
  %11 = alloca ptr, align 8
  store ptr %0, ptr %4, align 8
  store ptr %1, ptr %5, align 8
  store i32 %2, ptr %6, align 4
  %12 = load ptr, ptr %4, align 8
  %13 = call noundef i32 @_ZN11CodeSection8end_slopEv()
  store i32 %13, ptr %7, align 4
  %14 = load ptr, ptr %5, align 8
  %15 = call noundef i32 @_ZNK11CodeSection9alignmentEv(ptr noundef nonnull align 8 dereferenceable(88) %14)
  store i32 %15, ptr %8, align 4
  %16 = getelementptr inbounds %class.CodeBuffer, ptr %12, i32 0, i32 2
  %17 = getelementptr inbounds %class.CodeSection, ptr %16, i32 0, i32 0
  %18 = load ptr, ptr %17, align 8
  store ptr %18, ptr %9, align 8
  %19 = getelementptr inbounds %class.CodeBuffer, ptr %12, i32 0, i32 2
  %20 = getelementptr inbounds %class.CodeSection, ptr %19, i32 0, i32 3
  %21 = load ptr, ptr %20, align 8
  store ptr %21, ptr %10, align 8
  %22 = load ptr, ptr %10, align 8
  %23 = load i32, ptr %6, align 4
  %24 = sext i32 %23 to i64
  %25 = sub i64 0, %24
  %26 = getelementptr inbounds i8, ptr %22, i64 %25
  store ptr %26, ptr %11, align 8
  %27 = load ptr, ptr %11, align 8
  %28 = ptrtoint ptr %27 to i64
  %29 = load i32, ptr %8, align 4
  %30 = sub nsw i32 %29, 1
  %31 = sext i32 %30 to i64
  %32 = and i64 %28, %31
  %33 = load ptr, ptr %11, align 8
  %34 = sub i64 0, %32
  %35 = getelementptr inbounds i8, ptr %33, i64 %34
  store ptr %35, ptr %11, align 8
  br label %36

36:                                               ; preds = %3
  %37 = load ptr, ptr %11, align 8
  %38 = load i32, ptr %7, align 4
  %39 = sext i32 %38 to i64
  %40 = sub i64 0, %39
  %41 = getelementptr inbounds i8, ptr %37, i64 %40
  %42 = load ptr, ptr %9, align 8
  %43 = icmp ugt ptr %41, %42
  br i1 %43, label %46, label %44

44:                                               ; preds = %36
  %45 = load ptr, ptr @g_assert_poison, align 8
  store i8 88, ptr %45, align 1
  call void (ptr, i32, ptr, ptr, ...) @_Z15report_vm_errorPKciS0_S0_z(ptr noundef @.str, i32 noundef 164, ptr noundef @.str.4, ptr noundef @.str.5) #9
  unreachable

46:                                               ; preds = %36
  br label %47

47:                                               ; preds = %46
  %48 = load ptr, ptr %11, align 8
  %49 = load i32, ptr %7, align 4
  %50 = sext i32 %49 to i64
  %51 = sub i64 0, %50
  %52 = getelementptr inbounds i8, ptr %48, i64 %51
  %53 = getelementptr inbounds %class.CodeBuffer, ptr %12, i32 0, i32 2
  %54 = getelementptr inbounds %class.CodeSection, ptr %53, i32 0, i32 3
  store ptr %52, ptr %54, align 8
  %55 = load ptr, ptr %5, align 8
  %56 = load ptr, ptr %11, align 8
  %57 = load ptr, ptr %10, align 8
  %58 = load ptr, ptr %11, align 8
  %59 = ptrtoint ptr %57 to i64
  %60 = ptrtoint ptr %58 to i64
  %61 = sub i64 %59, %60
  %62 = trunc i64 %61 to i32
  call void @_ZN11CodeSection10initializeEPhi(ptr noundef nonnull align 8 dereferenceable(88) %55, ptr noundef %56, i32 noundef %62)
  %63 = getelementptr inbounds %class.CodeBuffer, ptr %12, i32 0, i32 2
  %64 = call noundef zeroext i1 @_ZNK11CodeSection8has_locsEv(ptr noundef nonnull align 8 dereferenceable(88) %63)
  br i1 %64, label %65, label %67

65:                                               ; preds = %47
  %66 = load ptr, ptr %5, align 8
  call void @_ZN11CodeSection15initialize_locsEi(ptr noundef nonnull align 8 dereferenceable(88) %66, i32 noundef 1)
  br label %67

67:                                               ; preds = %65, %47
  ret void
}