; Function Attrs: mustprogress nounwind uwtable
define hidden void @_ZN10CodeBuffer23initialize_section_sizeEP11CodeSectioni(ptr nocapture noundef nonnull align 8 dereferenceable(448) %0, ptr nocapture noundef %1, i32 noundef %2) local_unnamed_addr #0 align 2 {
  %4 = load i64, ptr @CodeEntryAlignment, align 8
  %5 = trunc i64 %4 to i32
  %6 = tail call noundef i32 @llvm.smax.i32(i32 %5, i32 8)
  %7 = getelementptr inbounds i8, ptr %1, i64 72
  %8 = load i8, ptr %7, align 8
  switch i8 %8, label %15 [
    i8 0, label %9
    i8 1, label %14
    i8 2, label %_ZNK11CodeSection9alignmentEv.exit
  ]

9:                                                ; preds = %3
  %10 = getelementptr inbounds i8, ptr %1, i64 80
  %11 = load ptr, ptr %10, align 8
  %12 = getelementptr inbounds i8, ptr %11, i64 444
  %13 = load i32, ptr %12, align 4
  br label %_ZNK11CodeSection9alignmentEv.exit

14:                                               ; preds = %3
  br label %_ZNK11CodeSection9alignmentEv.exit

15:                                               ; preds = %3
  %16 = load ptr, ptr @g_assert_poison, align 8
  store i8 88, ptr %16, align 1
  tail call void @_Z28report_should_not_reach_herePKci(ptr noundef nonnull @.str, i32 noundef 441) #17
  unreachable

_ZNK11CodeSection9alignmentEv.exit:               ; preds = %3, %9, %14
  %.0.i = phi i32 [ %13, %9 ], [ %5, %14 ], [ 8, %3 ]
  %17 = getelementptr inbounds i8, ptr %0, i64 96
  %18 = load ptr, ptr %17, align 8
  %19 = getelementptr inbounds i8, ptr %0, i64 120
  %20 = load ptr, ptr %19, align 8
  %21 = sext i32 %2 to i64
  %22 = sub nsw i64 0, %21
  %23 = getelementptr inbounds i8, ptr %20, i64 %22
  %24 = ptrtoint ptr %23 to i64
  %25 = add nsw i32 %.0.i, -1
  %26 = sext i32 %25 to i64
  %27 = and i64 %24, %26
  %28 = sub i64 0, %27
  %29 = getelementptr inbounds i8, ptr %23, i64 %28
  %30 = zext nneg i32 %6 to i64
  %31 = sub nsw i64 0, %30
  %32 = getelementptr inbounds i8, ptr %29, i64 %31
  %33 = icmp ugt ptr %32, %18
  br i1 %33, label %36, label %34

34:                                               ; preds = %_ZNK11CodeSection9alignmentEv.exit
  %35 = load ptr, ptr @g_assert_poison, align 8
  store i8 88, ptr %35, align 1
  tail call void (ptr, i32, ptr, ptr, ...) @_Z15report_vm_errorPKciS0_S0_z(ptr noundef nonnull @.str, i32 noundef 164, ptr noundef nonnull @.str.4, ptr noundef nonnull @.str.5) #17
  unreachable

36:                                               ; preds = %_ZNK11CodeSection9alignmentEv.exit
  store ptr %32, ptr %19, align 8
  %37 = ptrtoint ptr %20 to i64
  %38 = ptrtoint ptr %29 to i64
  %39 = sub i64 %37, %38
  store ptr %29, ptr %1, align 8
  %40 = getelementptr inbounds i8, ptr %1, i64 8
  store ptr null, ptr %40, align 8
  %41 = getelementptr inbounds i8, ptr %1, i64 16
  store ptr %29, ptr %41, align 8
  %sext = shl i64 %39, 32
  %42 = ashr exact i64 %sext, 32
  %43 = getelementptr inbounds i8, ptr %29, i64 %42
  %44 = getelementptr inbounds i8, ptr %1, i64 24
  store ptr %43, ptr %44, align 8
  %45 = getelementptr inbounds i8, ptr %1, i64 56
  store ptr %29, ptr %45, align 8
  %46 = getelementptr inbounds i8, ptr %0, i64 136
  %47 = load ptr, ptr %46, align 8
  %.not = icmp eq ptr %47, null
  br i1 %.not, label %55, label %48

48:                                               ; preds = %36
  %49 = tail call noundef ptr @_Z23resource_allocate_bytesmN17AllocFailStrategy13AllocFailEnumE(i64 noundef 8, i32 noundef 0) #16
  %50 = getelementptr inbounds i8, ptr %1, i64 32
  store ptr %49, ptr %50, align 8
  %51 = getelementptr inbounds i8, ptr %1, i64 40
  store ptr %49, ptr %51, align 8
  %52 = getelementptr inbounds i8, ptr %49, i64 8
  %53 = getelementptr inbounds i8, ptr %1, i64 48
  store ptr %52, ptr %53, align 8
  %54 = getelementptr inbounds i8, ptr %1, i64 64
  store i8 1, ptr %54, align 8
  br label %55

55:                                               ; preds = %48, %36
  ret void
}